target datalayout = "e-m:e-p270:32:32-p271:32:32-p272:64:64-i64:64-i128:128-f80:128-n8:16:32:64-S128"
target triple = "x86_64-pc-linux-gnu"

%struct._GHashTableIter = type { ptr, ptr, ptr, i32, i32, ptr }
%struct.ssl_master_key_map_t = type { ptr, ptr, ptr, ptr, ptr, ptr, ptr, ptr, ptr, ptr, ptr, ptr, ptr, ptr, ptr }

; Function Attrs: null_pointer_is_valid sspstrong uwtable
define hidden i32 @ssl_session_key_count() #0 {
  %1 = alloca i32, align 4
  %2 = alloca i32, align 4
  %3 = alloca ptr, align 8
  %4 = alloca i32, align 4
  %5 = alloca %struct._GHashTableIter, align 8
  %6 = alloca ptr, align 8
  call void @llvm.lifetime.start.p0(i64 4, ptr %2) #5
  store i32 0, ptr %2, align 4
  call void @llvm.lifetime.start.p0(i64 8, ptr %3) #5
  %7 = call ptr @tls_get_master_key_map(i1 noundef zeroext false)
  store ptr %7, ptr %3, align 8
  %8 = load ptr, ptr %3, align 8
  %9 = icmp ne ptr %8, null
  br i1 %9, label %10, label %15

10:                                               ; preds = %0
  %11 = load ptr, ptr %3, align 8
  %12 = getelementptr inbounds nuw %struct.ssl_master_key_map_t, ptr %11, i32 0, i32 14
  %13 = load ptr, ptr %12, align 8
  %14 = icmp ne ptr %13, null
  br i1 %14, label %17, label %15

15:                                               ; preds = %10, %0
  %16 = load i32, ptr %2, align 4
  store i32 %16, ptr %1, align 4
  store i32 1, ptr %4, align 4
  br label %87

17:                                               ; preds = %10
  call void @llvm.lifetime.start.p0(i64 40, ptr %5) #5
  call void @llvm.lifetime.start.p0(i64 8, ptr %6) #5
  %18 = load ptr, ptr %3, align 8
  %19 = getelementptr inbounds nuw %struct.ssl_master_key_map_t, ptr %18, i32 0, i32 14
  %20 = load ptr, ptr %19, align 8
  call void @g_hash_table_iter_init(ptr noundef %5, ptr noundef %20)
  br label %21

21:                                               ; preds = %84, %17
  %22 = call i32 @g_hash_table_iter_next(ptr noundef %5, ptr noundef %6, ptr noundef null)
  %23 = icmp ne i32 %22, 0
  br i1 %23, label %24, label %85

24:                                               ; preds = %21
  %25 = load ptr, ptr %3, align 8
  %26 = getelementptr inbounds nuw %struct.ssl_master_key_map_t, ptr %25, i32 0, i32 2
  %27 = load ptr, ptr %26, align 8
  %28 = load ptr, ptr %6, align 8
  %29 = call i32 @g_hash_table_contains(ptr noundef %27, ptr noundef %28)
  %30 = icmp ne i32 %29, 0
  br i1 %30, label %31, label %34

31:                                               ; preds = %24
  %32 = load i32, ptr %2, align 4
  %33 = add i32 %32, 1
  store i32 %33, ptr %2, align 4
  br label %34

34:                                               ; preds = %31, %24
  %35 = load ptr, ptr %3, align 8
  %36 = getelementptr inbounds nuw %struct.ssl_master_key_map_t, ptr %35, i32 0, i32 5
  %37 = load ptr, ptr %36, align 8
  %38 = load ptr, ptr %6, align 8
  %39 = call i32 @g_hash_table_contains(ptr noundef %37, ptr noundef %38)
  %40 = icmp ne i32 %39, 0
  br i1 %40, label %41, label %44

41:                                               ; preds = %34
  %42 = load i32, ptr %2, align 4
  %43 = add i32 %42, 1
  store i32 %43, ptr %2, align 4
  br label %44

44:                                               ; preds = %41, %34
  %45 = load ptr, ptr %3, align 8
  %46 = getelementptr inbounds nuw %struct.ssl_master_key_map_t, ptr %45, i32 0, i32 6
  %47 = load ptr, ptr %46, align 8
  %48 = load ptr, ptr %6, align 8
  %49 = call i32 @g_hash_table_contains(ptr noundef %47, ptr noundef %48)
  %50 = icmp ne i32 %49, 0
  br i1 %50, label %51, label %54

51:                                               ; preds = %44
  %52 = load i32, ptr %2, align 4
  %53 = add i32 %52, 1
  store i32 %53, ptr %2, align 4
  br label %54

54:                                               ; preds = %51, %44
  %55 = load ptr, ptr %3, align 8
  %56 = getelementptr inbounds nuw %struct.ssl_master_key_map_t, ptr %55, i32 0, i32 7
  %57 = load ptr, ptr %56, align 8
  %58 = load ptr, ptr %6, align 8
  %59 = call i32 @g_hash_table_contains(ptr noundef %57, ptr noundef %58)
  %60 = icmp ne i32 %59, 0
  br i1 %60, label %61, label %64

61:                                               ; preds = %54
  %62 = load i32, ptr %2, align 4
  %63 = add i32 %62, 1
  store i32 %63, ptr %2, align 4
  br label %64

64:                                               ; preds = %61, %54
  %65 = load ptr, ptr %3, align 8
  %66 = getelementptr inbounds nuw %struct.ssl_master_key_map_t, ptr %65, i32 0, i32 8
  %67 = load ptr, ptr %66, align 8
  %68 = load ptr, ptr %6, align 8
  %69 = call i32 @g_hash_table_contains(ptr noundef %67, ptr noundef %68)
  %70 = icmp ne i32 %69, 0
  br i1 %70, label %71, label %74

71:                                               ; preds = %64
  %72 = load i32, ptr %2, align 4
  %73 = add i32 %72, 1
  store i32 %73, ptr %2, align 4
  br label %74

74:                                               ; preds = %71, %64
  %75 = load ptr, ptr %3, align 8
  %76 = getelementptr inbounds nuw %struct.ssl_master_key_map_t, ptr %75, i32 0, i32 9
  %77 = load ptr, ptr %76, align 8
  %78 = load ptr, ptr %6, align 8
  %79 = call i32 @g_hash_table_contains(ptr noundef %77, ptr noundef %78)
  %80 = icmp ne i32 %79, 0
  br i1 %80, label %81, label %84

81:                                               ; preds = %74
  %82 = load i32, ptr %2, align 4
  %83 = add i32 %82, 1
  store i32 %83, ptr %2, align 4
  br label %84

84:                                               ; preds = %81, %74
  br label %21, !llvm.loop !6

85:                                               ; preds = %21
  %86 = load i32, ptr %2, align 4
  store i32 %86, ptr %1, align 4
  store i32 1, ptr %4, align 4
  call void @llvm.lifetime.end.p0(i64 8, ptr %6) #5
  call void @llvm.lifetime.end.p0(i64 40, ptr %5) #5
  br label %87

87:                                               ; preds = %85, %15
  call void @llvm.lifetime.end.p0(i64 8, ptr %3) #5
  call void @llvm.lifetime.end.p0(i64 4, ptr %2) #5
  %88 = load i32, ptr %1, align 4
  ret i32 %88
}