; Function Attrs: null_pointer_is_valid sspstrong uwtable
define hidden i32 @ssl_session_key_count() local_unnamed_addr #0 {
  %1 = alloca %struct._GHashTableIter, align 8
  %2 = alloca ptr, align 8
  %3 = tail call ptr @tls_get_master_key_map(i1 noundef zeroext false)
  %.not = icmp eq ptr %3, null
  br i1 %.not, label %41, label %4

4:                                                ; preds = %0
  %5 = getelementptr inbounds nuw i8, ptr %3, i64 112
  %6 = load ptr, ptr %5, align 8
  %.not19 = icmp eq ptr %6, null
  br i1 %.not19, label %41, label %7

7:                                                ; preds = %4
  call void @llvm.lifetime.start.p0(i64 40, ptr nonnull %1) #4
  call void @llvm.lifetime.start.p0(i64 8, ptr nonnull %2) #4
  call void @g_hash_table_iter_init(ptr noundef nonnull %1, ptr noundef nonnull %6)
  %8 = call i32 @g_hash_table_iter_next(ptr noundef nonnull %1, ptr noundef nonnull %2, ptr noundef null)
  %.not2027 = icmp eq i32 %8, 0
  br i1 %.not2027, label %._crit_edge, label %.lr.ph

.lr.ph:                                           ; preds = %7
  %9 = getelementptr inbounds nuw i8, ptr %3, i64 16
  %10 = getelementptr inbounds nuw i8, ptr %3, i64 40
  %11 = getelementptr inbounds nuw i8, ptr %3, i64 48
  %12 = getelementptr inbounds nuw i8, ptr %3, i64 56
  %13 = getelementptr inbounds nuw i8, ptr %3, i64 64
  %14 = getelementptr inbounds nuw i8, ptr %3, i64 72
  br label %15

15:                                               ; preds = %.lr.ph, %15
  %.01728 = phi i32 [ 0, %.lr.ph ], [ %.6, %15 ]
  %16 = load ptr, ptr %9, align 8
  %17 = load ptr, ptr %2, align 8
  %18 = call i32 @g_hash_table_contains(ptr noundef %16, ptr noundef %17)
  %.not21 = icmp ne i32 %18, 0
  %19 = zext i1 %.not21 to i32
  %spec.select = add i32 %.01728, %19
  %20 = load ptr, ptr %10, align 8
  %21 = load ptr, ptr %2, align 8
  %22 = call i32 @g_hash_table_contains(ptr noundef %20, ptr noundef %21)
  %.not22 = icmp ne i32 %22, 0
  %23 = zext i1 %.not22 to i32
  %.2 = add i32 %spec.select, %23
  %24 = load ptr, ptr %11, align 8
  %25 = load ptr, ptr %2, align 8
  %26 = call i32 @g_hash_table_contains(ptr noundef %24, ptr noundef %25)
  %.not23 = icmp ne i32 %26, 0
  %27 = zext i1 %.not23 to i32
  %.3 = add i32 %.2, %27
  %28 = load ptr, ptr %12, align 8
  %29 = load ptr, ptr %2, align 8
  %30 = call i32 @g_hash_table_contains(ptr noundef %28, ptr noundef %29)
  %.not24 = icmp ne i32 %30, 0
  %31 = zext i1 %.not24 to i32
  %.4 = add i32 %.3, %31
  %32 = load ptr, ptr %13, align 8
  %33 = load ptr, ptr %2, align 8
  %34 = call i32 @g_hash_table_contains(ptr noundef %32, ptr noundef %33)
  %.not25 = icmp ne i32 %34, 0
  %35 = zext i1 %.not25 to i32
  %.5 = add i32 %.4, %35
  %36 = load ptr, ptr %14, align 8
  %37 = load ptr, ptr %2, align 8
  %38 = call i32 @g_hash_table_contains(ptr noundef %36, ptr noundef %37)
  %.not26 = icmp ne i32 %38, 0
  %39 = zext i1 %.not26 to i32
  %.6 = add i32 %.5, %39
  %40 = call i32 @g_hash_table_iter_next(ptr noundef nonnull %1, ptr noundef nonnull %2, ptr noundef null)
  %.not20 = icmp eq i32 %40, 0
  br i1 %.not20, label %._crit_edge, label %15, !llvm.loop !6

._crit_edge:                                      ; preds = %15, %7
  %.017.lcssa = phi i32 [ 0, %7 ], [ %.6, %15 ]
  call void @llvm.lifetime.end.p0(i64 8, ptr nonnull %2) #4
  call void @llvm.lifetime.end.p0(i64 40, ptr nonnull %1) #4
  br label %41

41:                                               ; preds = %0, %4, %._crit_edge
  %.0 = phi i32 [ %.017.lcssa, %._crit_edge ], [ 0, %4 ], [ 0, %0 ]
  ret i32 %.0
}